target datalayout = "e-m:e-p270:32:32-p271:32:32-p272:64:64-i64:64-i128:128-f80:128-n8:16:32:64-S128"
target triple = "x86_64-pc-linux-gnu"

%struct.RSA_PKEY_CTX = type { i32, ptr, i32, [2 x i32], i32, ptr, ptr, i32, i32, ptr, ptr, i64, i32 }
%struct.evp_pkey_ctx_st = type { i32, ptr, ptr, ptr, ptr, %union.anon, %struct.anon.4, ptr, ptr, ptr, i32, i32, ptr, ptr, ptr, ptr, ptr, i8, ptr }
%union.anon = type { %struct.anon.0 }
%struct.anon.0 = type { ptr, ptr }
%struct.anon.4 = type { ptr, ptr, i64, i8 }

@.str = private unnamed_addr constant [34 x i8] c"../openssl/crypto/rsa/rsa_pmeth.c\00", align 1

; Function Attrs: nounwind uwtable
define internal i32 @setup_tbuf(ptr noundef %0, ptr noundef %1) #0 {
  %3 = alloca i32, align 4
  %4 = alloca ptr, align 8
  %5 = alloca ptr, align 8
  store ptr %0, ptr %4, align 8, !tbaa !8
  store ptr %1, ptr %5, align 8, !tbaa !3
  %6 = load ptr, ptr %4, align 8, !tbaa !8
  %7 = getelementptr inbounds nuw %struct.RSA_PKEY_CTX, ptr %6, i32 0, i32 9
  %8 = load ptr, ptr %7, align 8, !tbaa !40
  %9 = icmp ne ptr %8, null
  br i1 %9, label %10, label %11

10:                                               ; preds = %2
  store i32 1, ptr %3, align 4
  br label %24

11:                                               ; preds = %2
  %12 = load ptr, ptr %5, align 8, !tbaa !3
  %13 = getelementptr inbounds nuw %struct.evp_pkey_ctx_st, ptr %12, i32 0, i32 14
  %14 = load ptr, ptr %13, align 8, !tbaa !52
  %15 = call ptr @EVP_PKEY_get0_RSA(ptr noundef %14)
  %16 = call i32 @RSA_size(ptr noundef %15)
  %17 = sext i32 %16 to i64
  %18 = call noalias ptr @CRYPTO_malloc(i64 noundef %17, ptr noundef @.str, i32 noundef 119)
  %19 = load ptr, ptr %4, align 8, !tbaa !8
  %20 = getelementptr inbounds nuw %struct.RSA_PKEY_CTX, ptr %19, i32 0, i32 9
  store ptr %18, ptr %20, align 8, !tbaa !40
  %21 = icmp eq ptr %18, null
  br i1 %21, label %22, label %23

22:                                               ; preds = %11
  store i32 0, ptr %3, align 4
  br label %24

23:                                               ; preds = %11
  store i32 1, ptr %3, align 4
  br label %24

24:                                               ; preds = %23, %22, %10
  %25 = load i32, ptr %3, align 4
  ret i32 %25
}

; Function Attrs: nounwind uwtable
define internal i32 @pkey_rsa_encrypt(ptr noundef %0, ptr noundef %1, ptr noundef %2, ptr noundef %3, i64 noundef %4) #0 {
  %6 = alloca i32, align 4
  %7 = alloca ptr, align 8
  %8 = alloca ptr, align 8
  %9 = alloca ptr, align 8
  %10 = alloca ptr, align 8
  %11 = alloca i64, align 8
  %12 = alloca i32, align 4
  %13 = alloca ptr, align 8
  %14 = alloca ptr, align 8
  %15 = alloca i32, align 4
  %16 = alloca i32, align 4
  store ptr %0, ptr %7, align 8, !tbaa !3
  store ptr %1, ptr %8, align 8, !tbaa !48
  store ptr %2, ptr %9, align 8, !tbaa !49
  store ptr %3, ptr %10, align 8, !tbaa !48
  store i64 %4, ptr %11, align 8, !tbaa !51
  call void @llvm.lifetime.start.p0(i64 4, ptr %12) #8
  call void @llvm.lifetime.start.p0(i64 8, ptr %13) #8
  %17 = load ptr, ptr %7, align 8, !tbaa !3
  %18 = getelementptr inbounds nuw %struct.evp_pkey_ctx_st, ptr %17, i32 0, i32 16
  %19 = load ptr, ptr %18, align 8, !tbaa !32
  store ptr %19, ptr %13, align 8, !tbaa !8
  call void @llvm.lifetime.start.p0(i64 8, ptr %14) #8
  %20 = load ptr, ptr %7, align 8, !tbaa !3
  %21 = getelementptr inbounds nuw %struct.evp_pkey_ctx_st, ptr %20, i32 0, i32 14
  %22 = load ptr, ptr %21, align 8, !tbaa !52
  %23 = call ptr @EVP_PKEY_get0_RSA(ptr noundef %22)
  store ptr %23, ptr %14, align 8, !tbaa !42
  %24 = load ptr, ptr %13, align 8, !tbaa !8
  %25 = getelementptr inbounds nuw %struct.RSA_PKEY_CTX, ptr %24, i32 0, i32 4
  %26 = load i32, ptr %25, align 4, !tbaa !28
  %27 = icmp eq i32 %26, 4
  br i1 %27, label %28, label %71

28:                                               ; preds = %5
  call void @llvm.lifetime.start.p0(i64 4, ptr %15) #8
  %29 = load ptr, ptr %14, align 8, !tbaa !42
  %30 = call i32 @RSA_size(ptr noundef %29)
  store i32 %30, ptr %15, align 4, !tbaa !47
  %31 = load ptr, ptr %13, align 8, !tbaa !8
  %32 = load ptr, ptr %7, align 8, !tbaa !3
  %33 = call i32 @setup_tbuf(ptr noundef %31, ptr noundef %32)
  %34 = icmp ne i32 %33, 0
  br i1 %34, label %36, label %35

35:                                               ; preds = %28
  store i32 -1, ptr %6, align 4
  store i32 1, ptr %16, align 4
  br label %68

36:                                               ; preds = %28
  %37 = load ptr, ptr %13, align 8, !tbaa !8
  %38 = getelementptr inbounds nuw %struct.RSA_PKEY_CTX, ptr %37, i32 0, i32 9
  %39 = load ptr, ptr %38, align 8, !tbaa !40
  %40 = load i32, ptr %15, align 4, !tbaa !47
  %41 = load ptr, ptr %10, align 8, !tbaa !48
  %42 = load i64, ptr %11, align 8, !tbaa !51
  %43 = trunc i64 %42 to i32
  %44 = load ptr, ptr %13, align 8, !tbaa !8
  %45 = getelementptr inbounds nuw %struct.RSA_PKEY_CTX, ptr %44, i32 0, i32 10
  %46 = load ptr, ptr %45, align 8, !tbaa !38
  %47 = load ptr, ptr %13, align 8, !tbaa !8
  %48 = getelementptr inbounds nuw %struct.RSA_PKEY_CTX, ptr %47, i32 0, i32 11
  %49 = load i64, ptr %48, align 8, !tbaa !39
  %50 = trunc i64 %49 to i32
  %51 = load ptr, ptr %13, align 8, !tbaa !8
  %52 = getelementptr inbounds nuw %struct.RSA_PKEY_CTX, ptr %51, i32 0, i32 5
  %53 = load ptr, ptr %52, align 8, !tbaa !36
  %54 = load ptr, ptr %13, align 8, !tbaa !8
  %55 = getelementptr inbounds nuw %struct.RSA_PKEY_CTX, ptr %54, i32 0, i32 6
  %56 = load ptr, ptr %55, align 8, !tbaa !37
  %57 = call i32 @RSA_padding_add_PKCS1_OAEP_mgf1(ptr noundef %39, i32 noundef %40, ptr noundef %41, i32 noundef %43, ptr noundef %46, i32 noundef %50, ptr noundef %53, ptr noundef %56)
  %58 = icmp ne i32 %57, 0
  br i1 %58, label %60, label %59

59:                                               ; preds = %36
  store i32 -1, ptr %6, align 4
  store i32 1, ptr %16, align 4
  br label %68

60:                                               ; preds = %36
  %61 = load i32, ptr %15, align 4, !tbaa !47
  %62 = load ptr, ptr %13, align 8, !tbaa !8
  %63 = getelementptr inbounds nuw %struct.RSA_PKEY_CTX, ptr %62, i32 0, i32 9
  %64 = load ptr, ptr %63, align 8, !tbaa !40
  %65 = load ptr, ptr %8, align 8, !tbaa !48
  %66 = load ptr, ptr %14, align 8, !tbaa !42
  %67 = call i32 @RSA_public_encrypt(i32 noundef %61, ptr noundef %64, ptr noundef %65, ptr noundef %66, i32 noundef 3)
  store i32 %67, ptr %12, align 4, !tbaa !47
  store i32 0, ptr %16, align 4
  br label %68

68:                                               ; preds = %60, %59, %35
  call void @llvm.lifetime.end.p0(i64 4, ptr %15) #8
  %69 = load i32, ptr %16, align 4
  switch i32 %69, label %90 [
    i32 0, label %70
  ]

70:                                               ; preds = %68
  br label %81

71:                                               ; preds = %5
  %72 = load i64, ptr %11, align 8, !tbaa !51
  %73 = trunc i64 %72 to i32
  %74 = load ptr, ptr %10, align 8, !tbaa !48
  %75 = load ptr, ptr %8, align 8, !tbaa !48
  %76 = load ptr, ptr %14, align 8, !tbaa !42
  %77 = load ptr, ptr %13, align 8, !tbaa !8
  %78 = getelementptr inbounds nuw %struct.RSA_PKEY_CTX, ptr %77, i32 0, i32 4
  %79 = load i32, ptr %78, align 4, !tbaa !28
  %80 = call i32 @RSA_public_encrypt(i32 noundef %73, ptr noundef %74, ptr noundef %75, ptr noundef %76, i32 noundef %79)
  store i32 %80, ptr %12, align 4, !tbaa !47
  br label %81

81:                                               ; preds = %71, %70
  %82 = load i32, ptr %12, align 4, !tbaa !47
  %83 = icmp slt i32 %82, 0
  br i1 %83, label %84, label %86

84:                                               ; preds = %81
  %85 = load i32, ptr %12, align 4, !tbaa !47
  store i32 %85, ptr %6, align 4
  store i32 1, ptr %16, align 4
  br label %90

86:                                               ; preds = %81
  %87 = load i32, ptr %12, align 4, !tbaa !47
  %88 = sext i32 %87 to i64
  %89 = load ptr, ptr %9, align 8, !tbaa !49
  store i64 %88, ptr %89, align 8, !tbaa !51
  store i32 1, ptr %6, align 4
  store i32 1, ptr %16, align 4
  br label %90

90:                                               ; preds = %86, %84, %68
  call void @llvm.lifetime.end.p0(i64 8, ptr %14) #8
  call void @llvm.lifetime.end.p0(i64 8, ptr %13) #8
  call void @llvm.lifetime.end.p0(i64 4, ptr %12) #8
  %91 = load i32, ptr %6, align 4
  ret i32 %91
}