; Function Attrs: nounwind uwtable
define internal range(i32 -2147483648, 2) i32 @pkey_rsa_encrypt(ptr noundef readonly captures(none) %0, ptr noundef %1, ptr noundef writeonly captures(none) %2, ptr noundef %3, i64 noundef %4) #1 {
  %6 = getelementptr inbounds nuw i8, ptr %0, i64 152
  %7 = load ptr, ptr %6, align 8, !tbaa !29
  %8 = getelementptr inbounds nuw i8, ptr %0, i64 136
  %9 = load ptr, ptr %8, align 8, !tbaa !51
  %10 = tail call ptr @EVP_PKEY_get0_RSA(ptr noundef %9) #9
  %11 = getelementptr inbounds nuw i8, ptr %7, i64 28
  %12 = load i32, ptr %11, align 4, !tbaa !25
  %13 = icmp eq i32 %12, 4
  br i1 %13, label %14, label %38

14:                                               ; preds = %5
  %15 = tail call i32 @RSA_size(ptr noundef %10) #9
  %16 = getelementptr inbounds nuw i8, ptr %7, i64 56
  %17 = load ptr, ptr %16, align 8, !tbaa !37
  %.not.i = icmp eq ptr %17, null
  br i1 %.not.i, label %setup_tbuf.exit, label %setup_tbuf.exit.thread

setup_tbuf.exit:                                  ; preds = %14
  %18 = load ptr, ptr %8, align 8, !tbaa !51
  %19 = tail call ptr @EVP_PKEY_get0_RSA(ptr noundef %18) #9
  %20 = tail call i32 @RSA_size(ptr noundef %19) #9
  %21 = sext i32 %20 to i64
  %22 = tail call noalias ptr @CRYPTO_malloc(i64 noundef %21, ptr noundef nonnull @.str, i32 noundef 119) #9
  store ptr %22, ptr %16, align 8, !tbaa !37
  %.not37 = icmp eq ptr %22, null
  br i1 %.not37, label %.thread, label %setup_tbuf.exit.thread

setup_tbuf.exit.thread:                           ; preds = %14, %setup_tbuf.exit
  %23 = phi ptr [ %17, %14 ], [ %22, %setup_tbuf.exit ]
  %24 = trunc i64 %4 to i32
  %25 = getelementptr inbounds nuw i8, ptr %7, i64 64
  %26 = load ptr, ptr %25, align 8, !tbaa !35
  %27 = getelementptr inbounds nuw i8, ptr %7, i64 72
  %28 = load i64, ptr %27, align 8, !tbaa !36
  %29 = trunc i64 %28 to i32
  %30 = getelementptr inbounds nuw i8, ptr %7, i64 32
  %31 = load ptr, ptr %30, align 8, !tbaa !33
  %32 = getelementptr inbounds nuw i8, ptr %7, i64 40
  %33 = load ptr, ptr %32, align 8, !tbaa !34
  %34 = tail call i32 @RSA_padding_add_PKCS1_OAEP_mgf1(ptr noundef nonnull %23, i32 noundef %15, ptr noundef %3, i32 noundef %24, ptr noundef %26, i32 noundef %29, ptr noundef %31, ptr noundef %33) #9
  %.not32 = icmp eq i32 %34, 0
  br i1 %.not32, label %.thread, label %35

35:                                               ; preds = %setup_tbuf.exit.thread
  %36 = load ptr, ptr %16, align 8, !tbaa !37
  %37 = tail call i32 @RSA_public_encrypt(i32 noundef %15, ptr noundef %36, ptr noundef %1, ptr noundef %10, i32 noundef 3) #9
  br label %41

38:                                               ; preds = %5
  %39 = trunc i64 %4 to i32
  %40 = tail call i32 @RSA_public_encrypt(i32 noundef %39, ptr noundef %3, ptr noundef %1, ptr noundef %10, i32 noundef %12) #9
  br label %41

41:                                               ; preds = %35, %38
  %.130 = phi i32 [ %37, %35 ], [ %40, %38 ]
  %42 = icmp slt i32 %.130, 0
  br i1 %42, label %.thread, label %43

43:                                               ; preds = %41
  %44 = zext nneg i32 %.130 to i64
  store i64 %44, ptr %2, align 8, !tbaa !54
  br label %.thread

.thread:                                          ; preds = %setup_tbuf.exit.thread, %setup_tbuf.exit, %41, %43
  %.1 = phi i32 [ 1, %43 ], [ %.130, %41 ], [ -1, %setup_tbuf.exit ], [ -1, %setup_tbuf.exit.thread ]
  ret i32 %.1
}